target datalayout = "e-m:e-p270:32:32-p271:32:32-p272:64:64-i64:64-i128:128-f80:128-n8:16:32:64-S128"
target triple = "x86_64-pc-linux-gnu"

%struct.expert_field = type { i32, i32 }
%struct._packet_info = type { ptr, ptr, i32, i32, %struct.nstime_t, %struct.nstime_t, %struct.nstime_t, i8, ptr, ptr, ptr, ptr, %struct._address, %struct._address, %struct._address, %struct._address, %struct._address, %struct._address, i32, ptr, i8, [3 x i8], %struct.anon, i32, i32, i32, i32, ptr, i8, ptr, ptr, i16, i16, i32, i32, i16, i32, i32, ptr, ptr, ptr, i8, i8, i16, i16, i16, i32, i16, i16, ptr, ptr, ptr, ptr, ptr, i32, i32 }
%struct.nstime_t = type { i64, i32 }
%struct._address = type { i32, i32, ptr, ptr }
%struct.anon = type { i8, [3 x i8] }

@hf_docsis_dccrsp_conf_code = internal global i32 0, align 4
@hf_docsis_dccrsp_type = internal global i32 0, align 4
@hf_docsis_dccrsp_length = internal global i32 0, align 4
@hf_docsis_dcc_cm_jump_subtype = internal global i32 0, align 4
@hf_docsis_dcc_cm_jump_length = internal global i32 0, align 4
@hf_docsis_dccrsp_cm_jump_time_length = internal global i32 0, align 4
@hf_docsis_dccrsp_cm_jump_time_start = internal global i32 0, align 4
@hf_docsis_dccrsp_key_seq_num = internal global i32 0, align 4
@hf_docsis_dccrsp_hmac_digest = internal global i32 0, align 4
@hf_docsis_mgt_tranid = internal global i32 0, align 4
@ett_docsis_dccrsp = internal global i32 0, align 4
@ett_docsis_dccrsp_cm_jump_time = internal global i32 0, align 4
@ett_docsis_dccrsp_tlv = internal global i32 0, align 4
@ei_docsis_mgmt_tlvlen_bad = internal global %struct.expert_field zeroinitializer, align 4
@proto_docsis_dccrsp = internal global i32 0, align 4
@cm_jump_subtlv_vals = internal constant [3 x { i32, [4 x i8], ptr }] [{ i32, [4 x i8], ptr } { i32 1, [4 x i8] zeroinitializer, ptr @.str.511 }, { i32, [4 x i8], ptr } { i32 2, [4 x i8] zeroinitializer, ptr @.str.513 }, { i32, [4 x i8], ptr } zeroinitializer], align 16
@.str.2140 = private unnamed_addr constant [17 x i8] c"Unknown TLV (%u)\00", align 1
@.str.2141 = private unnamed_addr constant [21 x i8] c"Wrong TLV length: %u\00", align 1
@.str.2186 = private unnamed_addr constant [16 x i8] c"DCC-RSP Message\00", align 1

; Function Attrs: null_pointer_is_valid sspstrong uwtable
define internal void @dissect_dccrsp_cm_jump_time(ptr noundef %0, ptr noundef %1, ptr noundef %2, i32 noundef %3, i16 noundef zeroext %4) #0 {
  %6 = alloca ptr, align 8
  %7 = alloca ptr, align 8
  %8 = alloca ptr, align 8
  %9 = alloca i32, align 4
  %10 = alloca i16, align 2
  %11 = alloca i8, align 1
  %12 = alloca i32, align 4
  %13 = alloca ptr, align 8
  %14 = alloca ptr, align 8
  %15 = alloca ptr, align 8
  %16 = alloca i32, align 4
  store ptr %0, ptr %6, align 8
  store ptr %1, ptr %7, align 8
  store ptr %2, ptr %8, align 8
  store i32 %3, ptr %9, align 4
  store i16 %4, ptr %10, align 2
  call void @llvm.lifetime.start.p0(i64 1, ptr %11) #6
  call void @llvm.lifetime.start.p0(i64 4, ptr %12) #6
  call void @llvm.lifetime.start.p0(i64 8, ptr %13) #6
  call void @llvm.lifetime.start.p0(i64 8, ptr %14) #6
  call void @llvm.lifetime.start.p0(i64 8, ptr %15) #6
  call void @llvm.lifetime.start.p0(i64 4, ptr %16) #6
  %17 = load i32, ptr %9, align 4
  store i32 %17, ptr %16, align 4
  br label %18

18:                                               ; preds = %90, %5
  %19 = load i32, ptr %16, align 4
  %20 = load i32, ptr %9, align 4
  %21 = load i16, ptr %10, align 2
  %22 = zext i16 %21 to i32
  %23 = add i32 %20, %22
  %24 = icmp slt i32 %19, %23
  br i1 %24, label %25, label %94

25:                                               ; preds = %18
  %26 = load ptr, ptr %6, align 8
  %27 = load i32, ptr %16, align 4
  %28 = call zeroext i8 @tvb_get_uint8(ptr noundef %26, i32 noundef %27)
  store i8 %28, ptr %11, align 1
  %29 = load ptr, ptr %8, align 8
  %30 = load ptr, ptr %6, align 8
  %31 = load i32, ptr %16, align 4
  %32 = load i32, ptr @ett_docsis_dccrsp_cm_jump_time, align 4
  %33 = load i8, ptr %11, align 1
  %34 = zext i8 %33 to i32
  %35 = call ptr @val_to_str(i32 noundef %34, ptr noundef @cm_jump_subtlv_vals, ptr noundef @.str.2140)
  %36 = call ptr @proto_tree_add_subtree(ptr noundef %29, ptr noundef %30, i32 noundef %31, i32 noundef -1, i32 noundef %32, ptr noundef %14, ptr noundef %35)
  store ptr %36, ptr %13, align 8
  %37 = load ptr, ptr %13, align 8
  %38 = load i32, ptr @hf_docsis_dcc_cm_jump_subtype, align 4
  %39 = load ptr, ptr %6, align 8
  %40 = load i32, ptr %16, align 4
  %41 = load i8, ptr %11, align 1
  %42 = zext i8 %41 to i32
  %43 = call ptr @proto_tree_add_uint(ptr noundef %37, i32 noundef %38, ptr noundef %39, i32 noundef %40, i32 noundef 1, i32 noundef %42)
  %44 = load i32, ptr %16, align 4
  %45 = add i32 %44, 1
  store i32 %45, ptr %16, align 4
  %46 = load ptr, ptr %13, align 8
  %47 = load i32, ptr @hf_docsis_dcc_cm_jump_length, align 4
  %48 = load ptr, ptr %6, align 8
  %49 = load i32, ptr %16, align 4
  %50 = call ptr @proto_tree_add_item_ret_uint(ptr noundef %46, i32 noundef %47, ptr noundef %48, i32 noundef %49, i32 noundef 1, i32 noundef 0, ptr noundef %12)
  store ptr %50, ptr %15, align 8
  %51 = load i32, ptr %16, align 4
  %52 = add i32 %51, 1
  store i32 %52, ptr %16, align 4
  %53 = load ptr, ptr %14, align 8
  %54 = load i32, ptr %12, align 4
  %55 = add i32 %54, 2
  call void @proto_item_set_len(ptr noundef %53, i32 noundef %55)
  %56 = load i8, ptr %11, align 1
  %57 = zext i8 %56 to i32
  switch i32 %57, label %90 [
    i32 1, label %58
    i32 2, label %74
  ]

58:                                               ; preds = %25
  %59 = load i32, ptr %12, align 4
  %60 = icmp eq i32 %59, 4
  br i1 %60, label %61, label %68

61:                                               ; preds = %58
  %62 = load ptr, ptr %13, align 8
  %63 = load i32, ptr @hf_docsis_dccrsp_cm_jump_time_length, align 4
  %64 = load ptr, ptr %6, align 8
  %65 = load i32, ptr %16, align 4
  %66 = load i32, ptr %12, align 4
  %67 = call ptr @proto_tree_add_item(ptr noundef %62, i32 noundef %63, ptr noundef %64, i32 noundef %65, i32 noundef %66, i32 noundef 0)
  br label %73

68:                                               ; preds = %58
  %69 = load ptr, ptr %7, align 8
  %70 = load ptr, ptr %15, align 8
  %71 = load i32, ptr %12, align 4
  %72 = call ptr (ptr, ptr, ptr, ptr, ...) @expert_add_info_format(ptr noundef %69, ptr noundef %70, ptr noundef @ei_docsis_mgmt_tlvlen_bad, ptr noundef @.str.2141, i32 noundef %71)
  br label %73

73:                                               ; preds = %68, %61
  br label %90

74:                                               ; preds = %25
  %75 = load i32, ptr %12, align 4
  %76 = icmp eq i32 %75, 8
  br i1 %76, label %77, label %84

77:                                               ; preds = %74
  %78 = load ptr, ptr %13, align 8
  %79 = load i32, ptr @hf_docsis_dccrsp_cm_jump_time_start, align 4
  %80 = load ptr, ptr %6, align 8
  %81 = load i32, ptr %16, align 4
  %82 = load i32, ptr %12, align 4
  %83 = call ptr @proto_tree_add_item(ptr noundef %78, i32 noundef %79, ptr noundef %80, i32 noundef %81, i32 noundef %82, i32 noundef 0)
  br label %89

84:                                               ; preds = %74
  %85 = load ptr, ptr %7, align 8
  %86 = load ptr, ptr %15, align 8
  %87 = load i32, ptr %12, align 4
  %88 = call ptr (ptr, ptr, ptr, ptr, ...) @expert_add_info_format(ptr noundef %85, ptr noundef %86, ptr noundef @ei_docsis_mgmt_tlvlen_bad, ptr noundef @.str.2141, i32 noundef %87)
  br label %89

89:                                               ; preds = %84, %77
  br label %90

90:                                               ; preds = %25, %89, %73
  %91 = load i32, ptr %12, align 4
  %92 = load i32, ptr %16, align 4
  %93 = add i32 %92, %91
  store i32 %93, ptr %16, align 4
  br label %18, !llvm.loop !33

94:                                               ; preds = %18
  call void @llvm.lifetime.end.p0(i64 4, ptr %16) #6
  call void @llvm.lifetime.end.p0(i64 8, ptr %15) #6
  call void @llvm.lifetime.end.p0(i64 8, ptr %14) #6
  call void @llvm.lifetime.end.p0(i64 8, ptr %13) #6
  call void @llvm.lifetime.end.p0(i64 4, ptr %12) #6
  call void @llvm.lifetime.end.p0(i64 1, ptr %11) #6
  ret void
}

; Function Attrs: null_pointer_is_valid sspstrong uwtable
define internal i32 @dissect_dccrsp(ptr noundef %0, ptr noundef %1, ptr noundef %2, ptr noundef %3) #0 {
  %5 = alloca ptr, align 8
  %6 = alloca ptr, align 8
  %7 = alloca ptr, align 8
  %8 = alloca ptr, align 8
  %9 = alloca i16, align 2
  %10 = alloca i8, align 1
  %11 = alloca i32, align 4
  %12 = alloca ptr, align 8
  %13 = alloca ptr, align 8
  %14 = alloca ptr, align 8
  %15 = alloca ptr, align 8
  %16 = alloca ptr, align 8
  store ptr %0, ptr %5, align 8
  store ptr %1, ptr %6, align 8
  store ptr %2, ptr %7, align 8
  store ptr %3, ptr %8, align 8
  call void @llvm.lifetime.start.p0(i64 2, ptr %9) #6
  call void @llvm.lifetime.start.p0(i64 1, ptr %10) #6
  call void @llvm.lifetime.start.p0(i64 4, ptr %11) #6
  call void @llvm.lifetime.start.p0(i64 8, ptr %12) #6
  call void @llvm.lifetime.start.p0(i64 8, ptr %13) #6
  call void @llvm.lifetime.start.p0(i64 8, ptr %14) #6
  call void @llvm.lifetime.start.p0(i64 8, ptr %15) #6
  call void @llvm.lifetime.start.p0(i64 8, ptr %16) #6
  %17 = load ptr, ptr %6, align 8
  %18 = getelementptr inbounds nuw %struct._packet_info, ptr %17, i32 0, i32 1
  %19 = load ptr, ptr %18, align 8
  call void @col_set_str(ptr noundef %19, i32 noundef 25, ptr noundef @.str.2186)
  %20 = load ptr, ptr %7, align 8
  %21 = load i32, ptr @proto_docsis_dccrsp, align 4
  %22 = load ptr, ptr %5, align 8
  %23 = call ptr @proto_tree_add_item(ptr noundef %20, i32 noundef %21, ptr noundef %22, i32 noundef 0, i32 noundef -1, i32 noundef 0)
  store ptr %23, ptr %14, align 8
  %24 = load ptr, ptr %14, align 8
  %25 = load i32, ptr @ett_docsis_dccrsp, align 4
  %26 = call ptr @proto_item_add_subtree(ptr noundef %24, i32 noundef %25)
  store ptr %26, ptr %12, align 8
  %27 = load ptr, ptr %12, align 8
  %28 = load i32, ptr @hf_docsis_mgt_tranid, align 4
  %29 = load ptr, ptr %5, align 8
  %30 = call ptr @proto_tree_add_item(ptr noundef %27, i32 noundef %28, ptr noundef %29, i32 noundef 0, i32 noundef 2, i32 noundef 0)
  %31 = load ptr, ptr %12, align 8
  %32 = load i32, ptr @hf_docsis_dccrsp_conf_code, align 4
  %33 = load ptr, ptr %5, align 8
  %34 = call ptr @proto_tree_add_item(ptr noundef %31, i32 noundef %32, ptr noundef %33, i32 noundef 2, i32 noundef 1, i32 noundef 0)
  store i16 3, ptr %9, align 2
  br label %35

35:                                               ; preds = %120, %4
  %36 = load ptr, ptr %5, align 8
  %37 = load i16, ptr %9, align 2
  %38 = zext i16 %37 to i32
  %39 = call i32 @tvb_reported_length_remaining(ptr noundef %36, i32 noundef %38)
  %40 = icmp sgt i32 %39, 0
  br i1 %40, label %41, label %126

41:                                               ; preds = %35
  %42 = load ptr, ptr %5, align 8
  %43 = load i16, ptr %9, align 2
  %44 = zext i16 %43 to i32
  %45 = call zeroext i8 @tvb_get_uint8(ptr noundef %42, i32 noundef %44)
  store i8 %45, ptr %10, align 1
  %46 = load ptr, ptr %12, align 8
  %47 = load ptr, ptr %5, align 8
  %48 = load i16, ptr %9, align 2
  %49 = zext i16 %48 to i32
  %50 = load i32, ptr @ett_docsis_dccrsp_tlv, align 4
  %51 = load i8, ptr %10, align 1
  %52 = zext i8 %51 to i32
  %53 = call ptr @val_to_str(i32 noundef %52, ptr noundef @dccrsp_tlv_vals, ptr noundef @.str.2140)
  %54 = call ptr @proto_tree_add_subtree(ptr noundef %46, ptr noundef %47, i32 noundef %49, i32 noundef -1, i32 noundef %50, ptr noundef %15, ptr noundef %53)
  store ptr %54, ptr %13, align 8
  %55 = load ptr, ptr %13, align 8
  %56 = load i32, ptr @hf_docsis_dccrsp_type, align 4
  %57 = load ptr, ptr %5, align 8
  %58 = load i16, ptr %9, align 2
  %59 = zext i16 %58 to i32
  %60 = load i8, ptr %10, align 1
  %61 = zext i8 %60 to i32
  %62 = call ptr @proto_tree_add_uint(ptr noundef %55, i32 noundef %56, ptr noundef %57, i32 noundef %59, i32 noundef 1, i32 noundef %61)
  %63 = load i16, ptr %9, align 2
  %64 = add i16 %63, 1
  store i16 %64, ptr %9, align 2
  %65 = load ptr, ptr %13, align 8
  %66 = load i32, ptr @hf_docsis_dccrsp_length, align 4
  %67 = load ptr, ptr %5, align 8
  %68 = load i16, ptr %9, align 2
  %69 = zext i16 %68 to i32
  %70 = call ptr @proto_tree_add_item_ret_uint(ptr noundef %65, i32 noundef %66, ptr noundef %67, i32 noundef %69, i32 noundef 1, i32 noundef 0, ptr noundef %11)
  store ptr %70, ptr %16, align 8
  %71 = load i16, ptr %9, align 2
  %72 = add i16 %71, 1
  store i16 %72, ptr %9, align 2
  %73 = load ptr, ptr %15, align 8
  %74 = load i32, ptr %11, align 4
  %75 = add i32 %74, 2
  call void @proto_item_set_len(ptr noundef %73, i32 noundef %75)
  %76 = load i8, ptr %10, align 1
  %77 = zext i8 %76 to i32
  switch i32 %77, label %120 [
    i32 1, label %78
    i32 31, label %86
    i32 27, label %103
  ]

78:                                               ; preds = %41
  %79 = load ptr, ptr %5, align 8
  %80 = load ptr, ptr %6, align 8
  %81 = load ptr, ptr %13, align 8
  %82 = load i16, ptr %9, align 2
  %83 = zext i16 %82 to i32
  %84 = load i32, ptr %11, align 4
  %85 = trunc i32 %84 to i16
  call void @dissect_dccrsp_cm_jump_time(ptr noundef %79, ptr noundef %80, ptr noundef %81, i32 noundef %83, i16 noundef zeroext %85)
  br label %120

86:                                               ; preds = %41
  %87 = load i32, ptr %11, align 4
  %88 = icmp eq i32 %87, 1
  br i1 %88, label %89, label %97

89:                                               ; preds = %86
  %90 = load ptr, ptr %13, align 8
  %91 = load i32, ptr @hf_docsis_dccrsp_key_seq_num, align 4
  %92 = load ptr, ptr %5, align 8
  %93 = load i16, ptr %9, align 2
  %94 = zext i16 %93 to i32
  %95 = load i32, ptr %11, align 4
  %96 = call ptr @proto_tree_add_item(ptr noundef %90, i32 noundef %91, ptr noundef %92, i32 noundef %94, i32 noundef %95, i32 noundef 0)
  br label %102

97:                                               ; preds = %86
  %98 = load ptr, ptr %6, align 8
  %99 = load ptr, ptr %16, align 8
  %100 = load i32, ptr %11, align 4
  %101 = call ptr (ptr, ptr, ptr, ptr, ...) @expert_add_info_format(ptr noundef %98, ptr noundef %99, ptr noundef @ei_docsis_mgmt_tlvlen_bad, ptr noundef @.str.2141, i32 noundef %100)
  br label %102

102:                                              ; preds = %97, %89
  br label %120

103:                                              ; preds = %41
  %104 = load i32, ptr %11, align 4
  %105 = icmp eq i32 %104, 20
  br i1 %105, label %106, label %114

106:                                              ; preds = %103
  %107 = load ptr, ptr %13, align 8
  %108 = load i32, ptr @hf_docsis_dccrsp_hmac_digest, align 4
  %109 = load ptr, ptr %5, align 8
  %110 = load i16, ptr %9, align 2
  %111 = zext i16 %110 to i32
  %112 = load i32, ptr %11, align 4
  %113 = call ptr @proto_tree_add_item(ptr noundef %107, i32 noundef %108, ptr noundef %109, i32 noundef %111, i32 noundef %112, i32 noundef 0)
  br label %119

114:                                              ; preds = %103
  %115 = load ptr, ptr %6, align 8
  %116 = load ptr, ptr %16, align 8
  %117 = load i32, ptr %11, align 4
  %118 = call ptr (ptr, ptr, ptr, ptr, ...) @expert_add_info_format(ptr noundef %115, ptr noundef %116, ptr noundef @ei_docsis_mgmt_tlvlen_bad, ptr noundef @.str.2141, i32 noundef %117)
  br label %119

119:                                              ; preds = %114, %106
  br label %120

120:                                              ; preds = %41, %119, %102, %78
  %121 = load i32, ptr %11, align 4
  %122 = load i16, ptr %9, align 2
  %123 = zext i16 %122 to i32
  %124 = add i32 %123, %121
  %125 = trunc i32 %124 to i16
  store i16 %125, ptr %9, align 2
  br label %35, !llvm.loop !9

126:                                              ; preds = %35
  %127 = load ptr, ptr %5, align 8
  %128 = call i32 @tvb_captured_length(ptr noundef %127)
  call void @llvm.lifetime.end.p0(i64 8, ptr %16) #6
  call void @llvm.lifetime.end.p0(i64 8, ptr %15) #6
  call void @llvm.lifetime.end.p0(i64 8, ptr %14) #6
  call void @llvm.lifetime.end.p0(i64 8, ptr %13) #6
  call void @llvm.lifetime.end.p0(i64 8, ptr %12) #6
  call void @llvm.lifetime.end.p0(i64 4, ptr %11) #6
  call void @llvm.lifetime.end.p0(i64 1, ptr %10) #6
  call void @llvm.lifetime.end.p0(i64 2, ptr %9) #6
  ret i32 %128
}