; Function Attrs: null_pointer_is_valid sspstrong uwtable
define internal i32 @dissect_dccrsp(ptr noundef %0, ptr noundef %1, ptr noundef %2, ptr readnone captures(none) %3) #0 {
  %5 = alloca i32, align 4
  %6 = alloca ptr, align 8
  %7 = alloca i32, align 4
  %8 = alloca ptr, align 8
  call void @llvm.lifetime.start.p0(i64 4, ptr nonnull %7) #6
  call void @llvm.lifetime.start.p0(i64 8, ptr nonnull %8) #6
  %9 = getelementptr inbounds nuw i8, ptr %1, i64 8
  %10 = load ptr, ptr %9, align 8
  tail call void @col_set_str(ptr noundef %10, i32 noundef 25, ptr noundef nonnull @.str.2186)
  %11 = load i32, ptr @proto_docsis_dccrsp, align 4
  %12 = tail call ptr @proto_tree_add_item(ptr noundef %2, i32 noundef %11, ptr noundef %0, i32 noundef 0, i32 noundef -1, i32 noundef 0)
  %13 = load i32, ptr @ett_docsis_dccrsp, align 4
  %14 = tail call ptr @proto_item_add_subtree(ptr noundef %12, i32 noundef %13)
  %15 = load i32, ptr @hf_docsis_mgt_tranid, align 4
  %16 = tail call ptr @proto_tree_add_item(ptr noundef %14, i32 noundef %15, ptr noundef %0, i32 noundef 0, i32 noundef 2, i32 noundef 0)
  %17 = load i32, ptr @hf_docsis_dccrsp_conf_code, align 4
  %18 = tail call ptr @proto_tree_add_item(ptr noundef %14, i32 noundef %17, ptr noundef %0, i32 noundef 2, i32 noundef 1, i32 noundef 0)
  %19 = tail call i32 @tvb_reported_length_remaining(ptr noundef %0, i32 noundef 3)
  %20 = icmp sgt i32 %19, 0
  br i1 %20, label %.lr.ph, label %._crit_edge

.lr.ph:                                           ; preds = %4, %94
  %21 = phi i32 [ %98, %94 ], [ 3, %4 ]
  %.044 = phi i16 [ %97, %94 ], [ 3, %4 ]
  %22 = call zeroext i8 @tvb_get_uint8(ptr noundef %0, i32 noundef %21)
  %23 = load i32, ptr @ett_docsis_dccrsp_tlv, align 4
  %24 = zext i8 %22 to i32
  %25 = call ptr @val_to_str(i32 noundef %24, ptr noundef nonnull @dccrsp_tlv_vals, ptr noundef nonnull @.str.2140)
  %26 = call ptr @proto_tree_add_subtree(ptr noundef %14, ptr noundef %0, i32 noundef %21, i32 noundef -1, i32 noundef %23, ptr noundef nonnull %8, ptr noundef %25)
  %27 = load i32, ptr @hf_docsis_dccrsp_type, align 4
  %28 = call ptr @proto_tree_add_uint(ptr noundef %26, i32 noundef %27, ptr noundef %0, i32 noundef %21, i32 noundef 1, i32 noundef %24)
  %29 = add i16 %.044, 1
  %30 = load i32, ptr @hf_docsis_dccrsp_length, align 4
  %31 = zext i16 %29 to i32
  %32 = call ptr @proto_tree_add_item_ret_uint(ptr noundef %26, i32 noundef %30, ptr noundef %0, i32 noundef %31, i32 noundef 1, i32 noundef 0, ptr noundef nonnull %7)
  %33 = add i16 %.044, 2
  %34 = load ptr, ptr %8, align 8
  %35 = load i32, ptr %7, align 4
  %36 = add i32 %35, 2
  call void @proto_item_set_len(ptr noundef %34, i32 noundef %36)
  switch i8 %22, label %94 [
    i8 1, label %37
    i8 31, label %76
    i8 27, label %85
  ]

37:                                               ; preds = %.lr.ph
  %38 = zext i16 %33 to i32
  %39 = load i32, ptr %7, align 4
  call void @llvm.lifetime.start.p0(i64 4, ptr nonnull %5) #6
  call void @llvm.lifetime.start.p0(i64 8, ptr nonnull %6) #6
  %40 = and i32 %39, 65535
  %41 = add nuw nsw i32 %40, %38
  %.not.i = icmp eq i32 %40, 0
  br i1 %.not.i, label %dissect_dccrsp_cm_jump_time.exit, label %.lr.ph.i

.lr.ph.i:                                         ; preds = %37, %72
  %.033.i = phi i32 [ %74, %72 ], [ %38, %37 ]
  %42 = call zeroext i8 @tvb_get_uint8(ptr noundef %0, i32 noundef %.033.i)
  %43 = load i32, ptr @ett_docsis_dccrsp_cm_jump_time, align 4
  %44 = zext i8 %42 to i32
  %45 = call ptr @val_to_str(i32 noundef %44, ptr noundef nonnull @cm_jump_subtlv_vals, ptr noundef nonnull @.str.2140)
  %46 = call ptr @proto_tree_add_subtree(ptr noundef %26, ptr noundef %0, i32 noundef %.033.i, i32 noundef -1, i32 noundef %43, ptr noundef nonnull %6, ptr noundef %45)
  %47 = load i32, ptr @hf_docsis_dcc_cm_jump_subtype, align 4
  %48 = call ptr @proto_tree_add_uint(ptr noundef %46, i32 noundef %47, ptr noundef %0, i32 noundef %.033.i, i32 noundef 1, i32 noundef %44)
  %49 = add nsw i32 %.033.i, 1
  %50 = load i32, ptr @hf_docsis_dcc_cm_jump_length, align 4
  %51 = call ptr @proto_tree_add_item_ret_uint(ptr noundef %46, i32 noundef %50, ptr noundef %0, i32 noundef %49, i32 noundef 1, i32 noundef 0, ptr noundef nonnull %5)
  %52 = add nsw i32 %.033.i, 2
  %53 = load ptr, ptr %6, align 8
  %54 = load i32, ptr %5, align 4
  %55 = add i32 %54, 2
  call void @proto_item_set_len(ptr noundef %53, i32 noundef %55)
  switch i8 %42, label %72 [
    i8 1, label %56
    i8 2, label %64
  ]

56:                                               ; preds = %.lr.ph.i
  %57 = load i32, ptr %5, align 4
  %58 = icmp eq i32 %57, 4
  br i1 %58, label %59, label %62

59:                                               ; preds = %56
  %60 = load i32, ptr @hf_docsis_dccrsp_cm_jump_time_length, align 4
  %61 = call ptr @proto_tree_add_item(ptr noundef %46, i32 noundef %60, ptr noundef %0, i32 noundef %52, i32 noundef 4, i32 noundef 0)
  br label %72

62:                                               ; preds = %56
  %63 = call ptr (ptr, ptr, ptr, ptr, ...) @expert_add_info_format(ptr noundef %1, ptr noundef %51, ptr noundef nonnull @ei_docsis_mgmt_tlvlen_bad, ptr noundef nonnull @.str.2141, i32 noundef %57)
  br label %72

64:                                               ; preds = %.lr.ph.i
  %65 = load i32, ptr %5, align 4
  %66 = icmp eq i32 %65, 8
  br i1 %66, label %67, label %70

67:                                               ; preds = %64
  %68 = load i32, ptr @hf_docsis_dccrsp_cm_jump_time_start, align 4
  %69 = call ptr @proto_tree_add_item(ptr noundef %46, i32 noundef %68, ptr noundef %0, i32 noundef %52, i32 noundef 8, i32 noundef 0)
  br label %72

70:                                               ; preds = %64
  %71 = call ptr (ptr, ptr, ptr, ptr, ...) @expert_add_info_format(ptr noundef %1, ptr noundef %51, ptr noundef nonnull @ei_docsis_mgmt_tlvlen_bad, ptr noundef nonnull @.str.2141, i32 noundef %65)
  br label %72

72:                                               ; preds = %70, %67, %62, %59, %.lr.ph.i
  %73 = load i32, ptr %5, align 4
  %74 = add i32 %73, %52
  %75 = icmp slt i32 %74, %41
  br i1 %75, label %.lr.ph.i, label %dissect_dccrsp_cm_jump_time.exit, !llvm.loop !14

dissect_dccrsp_cm_jump_time.exit:                 ; preds = %72, %37
  call void @llvm.lifetime.end.p0(i64 8, ptr nonnull %6) #6
  call void @llvm.lifetime.end.p0(i64 4, ptr nonnull %5) #6
  br label %94

76:                                               ; preds = %.lr.ph
  %77 = load i32, ptr %7, align 4
  %78 = icmp eq i32 %77, 1
  br i1 %78, label %79, label %83

79:                                               ; preds = %76
  %80 = load i32, ptr @hf_docsis_dccrsp_key_seq_num, align 4
  %81 = zext i16 %33 to i32
  %82 = call ptr @proto_tree_add_item(ptr noundef %26, i32 noundef %80, ptr noundef %0, i32 noundef %81, i32 noundef 1, i32 noundef 0)
  br label %94

83:                                               ; preds = %76
  %84 = call ptr (ptr, ptr, ptr, ptr, ...) @expert_add_info_format(ptr noundef %1, ptr noundef %32, ptr noundef nonnull @ei_docsis_mgmt_tlvlen_bad, ptr noundef nonnull @.str.2141, i32 noundef %77)
  br label %94

85:                                               ; preds = %.lr.ph
  %86 = load i32, ptr %7, align 4
  %87 = icmp eq i32 %86, 20
  br i1 %87, label %88, label %92

88:                                               ; preds = %85
  %89 = load i32, ptr @hf_docsis_dccrsp_hmac_digest, align 4
  %90 = zext i16 %33 to i32
  %91 = call ptr @proto_tree_add_item(ptr noundef %26, i32 noundef %89, ptr noundef %0, i32 noundef %90, i32 noundef 20, i32 noundef 0)
  br label %94

92:                                               ; preds = %85
  %93 = call ptr (ptr, ptr, ptr, ptr, ...) @expert_add_info_format(ptr noundef %1, ptr noundef %32, ptr noundef nonnull @ei_docsis_mgmt_tlvlen_bad, ptr noundef nonnull @.str.2141, i32 noundef %86)
  br label %94

94:                                               ; preds = %88, %92, %79, %83, %dissect_dccrsp_cm_jump_time.exit, %.lr.ph
  %95 = load i32, ptr %7, align 4
  %96 = trunc i32 %95 to i16
  %97 = add i16 %33, %96
  %98 = zext i16 %97 to i32
  %99 = call i32 @tvb_reported_length_remaining(ptr noundef %0, i32 noundef %98)
  %100 = icmp sgt i32 %99, 0
  br i1 %100, label %.lr.ph, label %._crit_edge, !llvm.loop !15

._crit_edge:                                      ; preds = %94, %4
  %101 = call i32 @tvb_captured_length(ptr noundef %0)
  call void @llvm.lifetime.end.p0(i64 8, ptr nonnull %8) #6
  call void @llvm.lifetime.end.p0(i64 4, ptr nonnull %7) #6
  ret i32 %101
}